Certificate:
    Data:
        Version: 3 (0x2)
        Serial Number: 1 (0x1)
    Signature Algorithm: sha256WithRSAEncryption
        Issuer: C=AU, ST=WA, L=Narrogin, O=NGC, CN=NGC CA/name=EasyRSA/emailAddress=pfb@exadios.com
        Validity
            Not Before: Dec 21 02:53:38 2016 GMT
            Not After : Dec 19 02:53:38 2026 GMT
        Subject: C=AU, ST=WA, L=Narrogin, O=NGC, CN=server/name=EasyRSA/emailAddress=pfb@exadios.com
        Subject Public Key Info:
            Public Key Algorithm: rsaEncryption
                Public-Key: (2048 bit)
                Modulus:
                    00:d2:c6:31:f7:3c:0e:d6:34:14:72:b6:be:c8:9c:
                    5a:e2:26:d3:fe:77:49:a5:b4:f2:54:5e:59:84:ca:
                    77:8e:dd:c3:eb:f8:11:08:f0:69:9c:68:f6:bf:81:
                    0e:96:95:61:13:1a:72:cb:cf:d8:60:a8:80:2c:14:
                    54:cf:62:0a:4d:0e:41:5d:0b:1d:53:30:29:06:48:
                    26:3b:61:f2:f5:e2:44:9f:b1:4c:28:a1:38:e6:89:
                    3b:82:d4:0b:c0:60:c8:bf:23:12:f7:b8:81:94:bb:
                    3f:d4:23:69:f0:81:dd:60:81:44:31:18:bd:d0:91:
                    7b:15:fa:61:81:24:1b:f0:56:d4:22:a9:90:02:f5:
                    8c:5d:03:74:7f:f2:cd:77:0f:01:95:82:80:4c:95:
                    ca:49:71:21:1e:51:fb:d6:d5:b6:ca:d1:ed:1b:45:
                    ef:00:a7:eb:08:ce:2c:ab:20:37:85:05:6e:4d:50:
                    b8:6e:b9:55:7b:8c:f1:27:53:3f:e4:89:57:6f:9b:
                    42:2b:2f:4f:de:20:9a:c7:6c:16:43:ba:86:13:53:
                    05:f4:86:3a:2f:91:47:55:cb:78:80:55:cc:ea:10:
                    30:33:bb:63:e6:c1:ea:5e:3f:13:fa:ee:b5:a7:4e:
                    e0:38:24:88:4a:4d:5c:b1:5b:81:11:a4:7b:c4:c3:
                    0c:ad
                Exponent: 65537 (0x10001)
        X509v3 extensions:
            X509v3 Basic Constraints: 
                CA:FALSE
            Netscape Cert Type: 
                SSL Server
            Netscape Comment: 
                Easy-RSA Generated Server Certificate
            X509v3 Subject Key Identifier: 
                3A:5D:0A:D9:80:62:18:7D:DC:13:B2:04:BB:92:8B:4D:30:CA:3A:09
            X509v3 Authority Key Identifier: 
                keyid:CE:29:21:26:DE:E3:85:F8:5E:41:DB:48:E9:F9:04:7E:2C:19:1E:C0
                DirName:/C=AU/ST=WA/L=Narrogin/O=NGC/CN=NGC CA/name=EasyRSA/emailAddress=pfb@exadios.com
                serial:C8:DA:09:08:F2:01:92:E8

            X509v3 Extended Key Usage: 
                TLS Web Server Authentication
            X509v3 Key Usage: 
                Digital Signature, Key Encipherment
            X509v3 Subject Alternative Name: 
                DNS:server
    Signature Algorithm: sha256WithRSAEncryption
         38:18:5c:7f:97:c6:11:30:01:50:00:15:d2:f1:2b:06:17:a5:
         39:89:96:51:7e:9f:6d:aa:81:96:d3:1d:74:63:1b:1b:2d:a3:
         67:99:d8:3c:36:bd:ea:ca:d7:19:aa:09:82:81:ed:08:91:a6:
         71:ff:bc:c9:98:06:84:fc:9c:c3:b9:cb:47:65:05:6d:e2:6f:
         73:21:13:ef:a1:e4:0c:b9:91:dd:3c:c0:e2:de:aa:a9:57:46:
         5c:e8:4d:3d:54:f1:8f:97:52:49:01:e2:3f:a0:d1:a5:1a:78:
         c7:a1:e9:b1:32:41:ea:8f:d6:9a:34:74:5a:3c:39:8b:c9:e2:
         3a:16:0e:85:ee:f6:93:c3:d7:dd:ae:ce:40:65:c8:b2:1a:cb:
         6a:19:2c:2a:bf:dd:a9:44:6a:9a:1d:84:62:76:ee:66:b3:1e:
         cd:89:ae:b4:09:2f:6b:46:22:ce:8d:22:7c:8b:56:b3:eb:ba:
         a2:55:ae:98:04:61:0c:55:4a:d1:74:35:66:69:da:98:eb:36:
         57:30:3d:4c:a8:11:69:da:5c:b3:80:4e:66:b5:83:4d:5b:e2:
         a5:e6:d1:5a:61:0a:fc:74:2f:19:26:9c:26:83:41:61:8c:bc:
         5e:56:16:5f:8e:31:60:5a:17:9c:97:26:86:20:95:50:b5:16:
         37:5c:b7:48
-----BEGIN CERTIFICATE-----
MIIE2jCCA8KgAwIBAgIBATANBgkqhkiG9w0BAQsFADB+MQswCQYDVQQGEwJBVTEL
MAkGA1UECBMCV0ExETAPBgNVBAcTCE5hcnJvZ2luMQwwCgYDVQQKEwNOR0MxDzAN
BgNVBAMTBk5HQyBDQTEQMA4GA1UEKRMHRWFzeVJTQTEeMBwGCSqGSIb3DQEJARYP
cGZiQGV4YWRpb3MuY29tMB4XDTE2MTIyMTAyNTMzOFoXDTI2MTIxOTAyNTMzOFow
fjELMAkGA1UEBhMCQVUxCzAJBgNVBAgTAldBMREwDwYDVQQHEwhOYXJyb2dpbjEM
MAoGA1UEChMDTkdDMQ8wDQYDVQQDEwZzZXJ2ZXIxEDAOBgNVBCkTB0Vhc3lSU0Ex
HjAcBgkqhkiG9w0BCQEWD3BmYkBleGFkaW9zLmNvbTCCASIwDQYJKoZIhvcNAQEB
BQADggEPADCCAQoCggEBANLGMfc8DtY0FHK2vsicWuIm0/53SaW08lReWYTKd47d
w+v4EQjwaZxo9r+BDpaVYRMacsvP2GCogCwUVM9iCk0OQV0LHVMwKQZIJjth8vXi
RJ+xTCihOOaJO4LUC8BgyL8jEve4gZS7P9QjafCB3WCBRDEYvdCRexX6YYEkG/BW
1CKpkAL1jF0DdH/yzXcPAZWCgEyVyklxIR5R+9bVtsrR7RtF7wCn6wjOLKsgN4UF
bk1QuG65VXuM8SdTP+SJV2+bQisvT94gmsdsFkO6hhNTBfSGOi+RR1XLeIBVzOoQ
MDO7Y+bB6l4/E/rutadO4DgkiEpNXLFbgRGke8TDDK0CAwEAAaOCAWEwggFdMAkG
A1UdEwQCMAAwEQYJYIZIAYb4QgEBBAQDAgZAMDQGCWCGSAGG+EIBDQQnFiVFYXN5
LVJTQSBHZW5lcmF0ZWQgU2VydmVyIENlcnRpZmljYXRlMB0GA1UdDgQWBBQ6XQrZ
gGIYfdwTsgS7kotNMMo6CTCBsgYDVR0jBIGqMIGngBTOKSEm3uOF+F5B20jp+QR+
LBkewKGBg6SBgDB+MQswCQYDVQQGEwJBVTELMAkGA1UECBMCV0ExETAPBgNVBAcT
CE5hcnJvZ2luMQwwCgYDVQQKEwNOR0MxDzANBgNVBAMTBk5HQyBDQTEQMA4GA1UE
KRMHRWFzeVJTQTEeMBwGCSqGSIb3DQEJARYPcGZiQGV4YWRpb3MuY29tggkAyNoJ
CPIBkugwEwYDVR0lBAwwCgYIKwYBBQUHAwEwCwYDVR0PBAQDAgWgMBEGA1UdEQQK
MAiCBnNlcnZlcjANBgkqhkiG9w0BAQsFAAOCAQEAOBhcf5fGETABUAAV0vErBhel
OYmWUX6fbaqBltMddGMbGy2jZ5nYPDa96srXGaoJgoHtCJGmcf+8yZgGhPycw7nL
R2UFbeJvcyET76HkDLmR3TzA4t6qqVdGXOhNPVTxj5dSSQHiP6DRpRp4x6HpsTJB
6o/WmjR0Wjw5i8niOhYOhe72k8PX3a7OQGXIshrLahksKr/dqURqmh2EYnbuZrMe
zYmutAkva0Yizo0ifItWs+u6olWumARhDFVK0XQ1ZmnamOs2VzA9TKgRadpcs4BO
ZrWDTVvipebRWmEK/HQvGSacJoNBYYy8XlYWX44xYFoXnJcmhiCVULUWN1y3SA==
-----END CERTIFICATE-----
