Certificate:
    Data:
        Version: 3 (0x2)
        Serial Number: 4 (0x4)
    Signature Algorithm: sha256WithRSAEncryption
        Issuer: C=AU, ST=WA, L=Narrogin, O=NGC, CN=NGC CA/name=EasyRSA/emailAddress=pfb@exadios.com
        Validity
            Not Before: Jul  8 14:36:27 2017 GMT
            Not After : Jul  6 14:36:27 2027 GMT
        Subject: C=AU, ST=WA, L=YNRG, O=NGC, OU=OGN, CN=ogn/name=Flarm/emailAddress=pfb@exadios.com
        Subject Public Key Info:
            Public Key Algorithm: rsaEncryption
                Public-Key: (2048 bit)
                Modulus:
                    00:cf:d8:a9:89:5a:53:73:03:18:79:30:ad:da:ab:
                    48:54:1e:1c:05:7e:3f:59:d7:18:ab:56:13:1f:ec:
                    11:8b:7b:67:75:b1:40:98:6e:5e:92:ba:97:67:35:
                    b2:dc:8c:a9:55:a8:eb:d3:22:82:0a:1f:88:2c:6a:
                    a9:ff:b8:cc:21:a3:2d:6e:b1:bc:96:ba:27:5c:e8:
                    b6:69:90:8f:5b:69:70:39:67:c6:b9:f1:89:29:91:
                    b3:a2:fb:20:d4:7e:4a:c0:4e:9d:76:ad:49:03:5d:
                    74:51:ad:9b:50:a9:f7:e9:06:00:20:85:54:ef:44:
                    65:d7:d0:2f:6c:ef:b6:d0:bb:56:29:93:98:eb:53:
                    a1:28:5a:1d:c1:05:22:d5:a4:00:3e:65:eb:6e:8d:
                    62:dd:12:7e:43:e9:91:97:5f:7f:8c:14:39:28:41:
                    67:d3:df:3e:e3:8d:8e:d7:e0:14:26:e8:3d:e7:96:
                    e7:e3:ad:dd:4d:92:57:e2:fc:32:e7:04:70:01:7a:
                    0e:6a:f7:f9:28:bf:23:c4:cd:e5:87:7c:1a:9e:b0:
                    f5:a4:df:4d:8d:c3:c6:9a:79:98:08:f7:70:29:bf:
                    54:c9:67:33:fb:20:0a:29:6b:e3:65:73:84:b7:d7:
                    cb:3e:12:0d:b5:7b:2d:a7:da:d1:63:f1:f0:6d:c1:
                    d2:f3
                Exponent: 65537 (0x10001)
        X509v3 extensions:
            X509v3 Basic Constraints: 
                CA:FALSE
            Netscape Comment: 
                Easy-RSA Generated Certificate
            X509v3 Subject Key Identifier: 
                8C:88:23:8A:4F:DA:2F:F7:A4:32:59:B1:25:D8:50:BE:8F:7D:2E:D6
            X509v3 Authority Key Identifier: 
                keyid:CE:29:21:26:DE:E3:85:F8:5E:41:DB:48:E9:F9:04:7E:2C:19:1E:C0
                DirName:/C=AU/ST=WA/L=Narrogin/O=NGC/CN=NGC CA/name=EasyRSA/emailAddress=pfb@exadios.com
                serial:C8:DA:09:08:F2:01:92:E8

            X509v3 Extended Key Usage: 
                TLS Web Client Authentication
            X509v3 Key Usage: 
                Digital Signature
            X509v3 Subject Alternative Name: 
                DNS:ogn
    Signature Algorithm: sha256WithRSAEncryption
         ab:1d:18:5d:4c:71:61:93:2b:29:f9:0d:a5:8e:66:78:0f:a1:
         4c:44:a1:00:84:32:22:04:e0:ce:e8:a5:eb:02:d9:45:e8:6e:
         a3:20:de:6e:13:64:1a:60:25:6b:54:6c:9e:5b:0a:46:09:4d:
         f4:95:1e:e9:73:8d:f7:25:d8:7a:cf:53:38:de:52:17:f1:2f:
         40:ca:39:66:4a:11:fd:d9:2c:c7:f2:77:93:5b:e7:64:cf:27:
         14:a0:80:5a:f9:9a:29:e1:82:01:c6:61:45:68:8d:b9:00:05:
         89:70:77:f8:aa:85:80:6a:74:c1:5f:87:df:2d:dc:59:14:03:
         83:30:4f:eb:bc:63:42:a0:7b:64:79:6a:4a:05:b4:2a:21:aa:
         bf:68:da:0c:e4:c6:26:e1:18:e0:87:35:5a:d2:db:af:07:98:
         0d:ae:f5:52:da:57:82:d0:b9:4c:f3:af:7e:cc:4a:22:41:34:
         25:fa:5c:9b:f4:79:5e:ac:d8:5c:64:4b:3e:9b:15:e5:a5:58:
         fb:13:92:62:ae:cc:aa:6e:44:1e:1a:9f:7f:02:85:48:cd:3d:
         63:30:5c:fd:d9:ad:12:b0:51:48:6d:b7:f4:ad:11:f9:61:da:
         46:41:98:9f:60:60:30:f8:3a:3b:7e:7a:65:9a:79:cf:3f:30:
         25:a0:4f:93
-----BEGIN CERTIFICATE-----
MIIEwzCCA6ugAwIBAgIBBDANBgkqhkiG9w0BAQsFADB+MQswCQYDVQQGEwJBVTEL
MAkGA1UECBMCV0ExETAPBgNVBAcTCE5hcnJvZ2luMQwwCgYDVQQKEwNOR0MxDzAN
BgNVBAMTBk5HQyBDQTEQMA4GA1UEKRMHRWFzeVJTQTEeMBwGCSqGSIb3DQEJARYP
cGZiQGV4YWRpb3MuY29tMB4XDTE3MDcwODE0MzYyN1oXDTI3MDcwNjE0MzYyN1ow
gYMxCzAJBgNVBAYTAkFVMQswCQYDVQQIEwJXQTENMAsGA1UEBxMEWU5SRzEMMAoG
A1UEChMDTkdDMQwwCgYDVQQLEwNPR04xDDAKBgNVBAMTA29nbjEOMAwGA1UEKRMF
Rmxhcm0xHjAcBgkqhkiG9w0BCQEWD3BmYkBleGFkaW9zLmNvbTCCASIwDQYJKoZI
hvcNAQEBBQADggEPADCCAQoCggEBAM/YqYlaU3MDGHkwrdqrSFQeHAV+P1nXGKtW
Ex/sEYt7Z3WxQJhuXpK6l2c1styMqVWo69MiggofiCxqqf+4zCGjLW6xvJa6J1zo
tmmQj1tpcDlnxrnxiSmRs6L7INR+SsBOnXatSQNddFGtm1Cp9+kGACCFVO9EZdfQ
L2zvttC7VimTmOtToShaHcEFItWkAD5l626NYt0SfkPpkZdff4wUOShBZ9PfPuON
jtfgFCboPeeW5+Ot3U2SV+L8MucEcAF6Dmr3+Si/I8TN5Yd8Gp6w9aTfTY3Dxpp5
mAj3cCm/VMlnM/sgCilr42VzhLfXyz4SDbV7Lafa0WPx8G3B0vMCAwEAAaOCAUQw
ggFAMAkGA1UdEwQCMAAwLQYJYIZIAYb4QgENBCAWHkVhc3ktUlNBIEdlbmVyYXRl
ZCBDZXJ0aWZpY2F0ZTAdBgNVHQ4EFgQUjIgjik/aL/ekMlmxJdhQvo99LtYwgbIG
A1UdIwSBqjCBp4AUzikhJt7jhfheQdtI6fkEfiwZHsChgYOkgYAwfjELMAkGA1UE
BhMCQVUxCzAJBgNVBAgTAldBMREwDwYDVQQHEwhOYXJyb2dpbjEMMAoGA1UEChMD
TkdDMQ8wDQYDVQQDEwZOR0MgQ0ExEDAOBgNVBCkTB0Vhc3lSU0ExHjAcBgkqhkiG
9w0BCQEWD3BmYkBleGFkaW9zLmNvbYIJAMjaCQjyAZLoMBMGA1UdJQQMMAoGCCsG
AQUFBwMCMAsGA1UdDwQEAwIHgDAOBgNVHREEBzAFggNvZ24wDQYJKoZIhvcNAQEL
BQADggEBAKsdGF1McWGTKyn5DaWOZngPoUxEoQCEMiIE4M7opesC2UXobqMg3m4T
ZBpgJWtUbJ5bCkYJTfSVHulzjfcl2HrPUzjeUhfxL0DKOWZKEf3ZLMfyd5Nb52TP
JxSggFr5minhggHGYUVojbkABYlwd/iqhYBqdMFfh98t3FkUA4MwT+u8Y0Kge2R5
akoFtCohqr9o2gzkxibhGOCHNVrS268HmA2u9VLaV4LQuUzzr37MSiJBNCX6XJv0
eV6s2FxkSz6bFeWlWPsTkmKuzKpuRB4an38ChUjNPWMwXP3ZrRKwUUhtt/StEflh
2kZBmJ9gYDD4Ojt+emWaec8/MCWgT5M=
-----END CERTIFICATE-----
